target datalayout = "e-m:e-p270:32:32-p271:32:32-p272:64:64-i64:64-i128:128-f80:128-n8:16:32:64-S128"
target triple = "x86_64-pc-linux-gnu"

@.str = private unnamed_addr constant [24 x i8] c"unrecognized XML syntax\00", align 1
@.str.1 = private unnamed_addr constant [27 x i8] c"XML start/end tag mismatch\00", align 1
@.str.2 = private unnamed_addr constant [4 x i8] c" - \00", align 1
@.str.3 = private unnamed_addr constant [21 x i8] c"Invalid XML tag name\00", align 1
@.str.4 = private unnamed_addr constant [18 x i8] c"programming error\00", align 1

; Function Attrs: mustprogress uwtable
define void @_ZN5boost7archive21xml_archive_exceptionC2ENS1_14exception_codeEPKcS4_(ptr noundef nonnull align 8 dereferenceable(8) %0, ptr noundef %1, i32 noundef %2, ptr noundef %3, ptr noundef %4) unnamed_addr #0 align 2 {
  %6 = alloca ptr, align 8
  %7 = alloca ptr, align 8
  %8 = alloca i32, align 4
  %9 = alloca ptr, align 8
  %10 = alloca ptr, align 8
  %11 = alloca i32, align 4
  store ptr %0, ptr %6, align 8, !tbaa !3
  store ptr %1, ptr %7, align 8, !tbaa !3
  store i32 %2, ptr %8, align 4, !tbaa !7
  store ptr %3, ptr %9, align 8, !tbaa !3
  store ptr %4, ptr %10, align 8, !tbaa !3
  %12 = load ptr, ptr %6, align 8
  %13 = load ptr, ptr %7, align 8
  %14 = load ptr, ptr %13, align 8
  store ptr %14, ptr %12, align 8, !tbaa !9
  %15 = getelementptr inbounds ptr, ptr %13, i64 1
  %16 = load ptr, ptr %15, align 8
  %17 = load ptr, ptr %12, align 8, !tbaa !9
  %18 = getelementptr i8, ptr %17, i64 -40
  %19 = load i64, ptr %18, align 8
  %20 = getelementptr inbounds i8, ptr %12, i64 %19
  store ptr %16, ptr %20, align 8, !tbaa !9
  %21 = getelementptr inbounds ptr, ptr %13, i64 2
  %22 = load ptr, ptr %21, align 8
  %23 = load ptr, ptr %12, align 8, !tbaa !9
  %24 = getelementptr i8, ptr %23, i64 -48
  %25 = load i64, ptr %24, align 8
  %26 = getelementptr inbounds i8, ptr %12, i64 %25
  store ptr %22, ptr %26, align 8, !tbaa !9
  %27 = load i32, ptr %8, align 4, !tbaa !7
  switch i32 %27, label %63 [
    i32 0, label %28
    i32 1, label %34
    i32 2, label %57
  ]

28:                                               ; preds = %5
  %29 = load ptr, ptr %12, align 8, !tbaa !9
  %30 = getelementptr i8, ptr %29, i64 -40
  %31 = load i64, ptr %30, align 8
  %32 = getelementptr inbounds i8, ptr %12, i64 %31
  %33 = call noundef i32 @_ZN5boost7archive17archive_exception6appendEjPKc(ptr noundef nonnull align 8 dereferenceable(140) %32, i32 noundef 0, ptr noundef @.str)
  br label %69

34:                                               ; preds = %5
  call void @llvm.lifetime.start.p0(i64 4, ptr %11) #7
  %35 = load ptr, ptr %12, align 8, !tbaa !9
  %36 = getelementptr i8, ptr %35, i64 -40
  %37 = load i64, ptr %36, align 8
  %38 = getelementptr inbounds i8, ptr %12, i64 %37
  %39 = call noundef i32 @_ZN5boost7archive17archive_exception6appendEjPKc(ptr noundef nonnull align 8 dereferenceable(140) %38, i32 noundef 0, ptr noundef @.str.1)
  store i32 %39, ptr %11, align 4, !tbaa !11
  %40 = load ptr, ptr %9, align 8, !tbaa !3
  %41 = icmp ne ptr null, %40
  br i1 %41, label %42, label %56

42:                                               ; preds = %34
  %43 = load ptr, ptr %12, align 8, !tbaa !9
  %44 = getelementptr i8, ptr %43, i64 -40
  %45 = load i64, ptr %44, align 8
  %46 = getelementptr inbounds i8, ptr %12, i64 %45
  %47 = load i32, ptr %11, align 4, !tbaa !11
  %48 = call noundef i32 @_ZN5boost7archive17archive_exception6appendEjPKc(ptr noundef nonnull align 8 dereferenceable(140) %46, i32 noundef %47, ptr noundef @.str.2)
  store i32 %48, ptr %11, align 4, !tbaa !11
  %49 = load ptr, ptr %12, align 8, !tbaa !9
  %50 = getelementptr i8, ptr %49, i64 -40
  %51 = load i64, ptr %50, align 8
  %52 = getelementptr inbounds i8, ptr %12, i64 %51
  %53 = load i32, ptr %11, align 4, !tbaa !11
  %54 = load ptr, ptr %9, align 8, !tbaa !3
  %55 = call noundef i32 @_ZN5boost7archive17archive_exception6appendEjPKc(ptr noundef nonnull align 8 dereferenceable(140) %52, i32 noundef %53, ptr noundef %54)
  br label %56

56:                                               ; preds = %42, %34
  call void @llvm.lifetime.end.p0(i64 4, ptr %11) #7
  br label %69

57:                                               ; preds = %5
  %58 = load ptr, ptr %12, align 8, !tbaa !9
  %59 = getelementptr i8, ptr %58, i64 -40
  %60 = load i64, ptr %59, align 8
  %61 = getelementptr inbounds i8, ptr %12, i64 %60
  %62 = call noundef i32 @_ZN5boost7archive17archive_exception6appendEjPKc(ptr noundef nonnull align 8 dereferenceable(140) %61, i32 noundef 0, ptr noundef @.str.3)
  br label %69

63:                                               ; preds = %5
  %64 = load ptr, ptr %12, align 8, !tbaa !9
  %65 = getelementptr i8, ptr %64, i64 -40
  %66 = load i64, ptr %65, align 8
  %67 = getelementptr inbounds i8, ptr %12, i64 %66
  %68 = call noundef i32 @_ZN5boost7archive17archive_exception6appendEjPKc(ptr noundef nonnull align 8 dereferenceable(140) %67, i32 noundef 0, ptr noundef @.str.4)
  br label %69

69:                                               ; preds = %63, %57, %56, %28
  ret void
}