; Function Attrs: mustprogress uwtable
define void @_ZN5boost7archive21xml_archive_exceptionC2ENS1_14exception_codeEPKcS4_(ptr noundef nonnull align 8 dereferenceable(8) %0, ptr nocapture noundef readonly %1, i32 noundef %2, ptr noundef %3, ptr nocapture noundef readnone %4) unnamed_addr #0 align 2 {
  %6 = load ptr, ptr %1, align 8
  store ptr %6, ptr %0, align 8, !tbaa !3
  %7 = getelementptr inbounds i8, ptr %1, i64 8
  %8 = load ptr, ptr %7, align 8
  %9 = getelementptr i8, ptr %6, i64 -40
  %10 = load i64, ptr %9, align 8
  %11 = getelementptr inbounds i8, ptr %0, i64 %10
  store ptr %8, ptr %11, align 8, !tbaa !3
  %12 = getelementptr inbounds i8, ptr %1, i64 16
  %13 = load ptr, ptr %12, align 8
  %14 = load ptr, ptr %0, align 8, !tbaa !3
  %15 = getelementptr i8, ptr %14, i64 -48
  %16 = load i64, ptr %15, align 8
  %17 = getelementptr inbounds i8, ptr %0, i64 %16
  store ptr %13, ptr %17, align 8, !tbaa !3
  %18 = load ptr, ptr %0, align 8, !tbaa !3
  %19 = getelementptr i8, ptr %18, i64 -40
  %20 = load i64, ptr %19, align 8
  %21 = getelementptr inbounds i8, ptr %0, i64 %20
  switch i32 %2, label %39 [
    i32 0, label %22
    i32 1, label %24
    i32 2, label %37
  ]

22:                                               ; preds = %5
  %23 = tail call noundef i32 @_ZN5boost7archive17archive_exception6appendEjPKc(ptr noundef nonnull align 8 dereferenceable(140) %21, i32 noundef 0, ptr noundef nonnull @.str)
  br label %41

24:                                               ; preds = %5
  %25 = tail call noundef i32 @_ZN5boost7archive17archive_exception6appendEjPKc(ptr noundef nonnull align 8 dereferenceable(140) %21, i32 noundef 0, ptr noundef nonnull @.str.1)
  %.not = icmp eq ptr %3, null
  br i1 %.not, label %41, label %26

26:                                               ; preds = %24
  %27 = load ptr, ptr %0, align 8, !tbaa !3
  %28 = getelementptr i8, ptr %27, i64 -40
  %29 = load i64, ptr %28, align 8
  %30 = getelementptr inbounds i8, ptr %0, i64 %29
  %31 = tail call noundef i32 @_ZN5boost7archive17archive_exception6appendEjPKc(ptr noundef nonnull align 8 dereferenceable(140) %30, i32 noundef %25, ptr noundef nonnull @.str.2)
  %32 = load ptr, ptr %0, align 8, !tbaa !3
  %33 = getelementptr i8, ptr %32, i64 -40
  %34 = load i64, ptr %33, align 8
  %35 = getelementptr inbounds i8, ptr %0, i64 %34
  %36 = tail call noundef i32 @_ZN5boost7archive17archive_exception6appendEjPKc(ptr noundef nonnull align 8 dereferenceable(140) %35, i32 noundef %31, ptr noundef nonnull %3)
  br label %41

37:                                               ; preds = %5
  %38 = tail call noundef i32 @_ZN5boost7archive17archive_exception6appendEjPKc(ptr noundef nonnull align 8 dereferenceable(140) %21, i32 noundef 0, ptr noundef nonnull @.str.3)
  br label %41

39:                                               ; preds = %5
  %40 = tail call noundef i32 @_ZN5boost7archive17archive_exception6appendEjPKc(ptr noundef nonnull align 8 dereferenceable(140) %21, i32 noundef 0, ptr noundef nonnull @.str.4)
  br label %41

41:                                               ; preds = %24, %26, %39, %37, %22
  ret void
}